; Function Attrs: mustprogress uwtable
define void @_ZN6icu_7714ResourceBundleC2EPKcRKNS_6LocaleER10UErrorCode(ptr noundef nonnull align 8 dereferenceable(24) initializes((0, 8), (16, 24)) %0, ptr noundef %1, ptr noundef nonnull readonly align 8 captures(none) dereferenceable(217) %2, ptr noundef nonnull align 4 dereferenceable(4) %3) unnamed_addr #1 align 2 personality ptr @__gxx_personality_v0 {
  store ptr getelementptr inbounds nuw inrange(-16, 24) (i8, ptr @_ZTVN6icu_7714ResourceBundleE, i64 16), ptr %0, align 8, !tbaa !3
  %5 = getelementptr inbounds nuw i8, ptr %0, i64 16
  store ptr null, ptr %5, align 8, !tbaa !6
  %6 = getelementptr inbounds nuw i8, ptr %2, i64 40
  %7 = load ptr, ptr %6, align 8, !tbaa !13
  %8 = invoke ptr @ures_open_77(ptr noundef %1, ptr noundef %7, ptr noundef nonnull %3)
          to label %9 unwind label %11

9:                                                ; preds = %4
  %10 = getelementptr inbounds nuw i8, ptr %0, i64 8
  store ptr %8, ptr %10, align 8, !tbaa !17
  ret void

11:                                               ; preds = %4
  %12 = landingpad { ptr, i32 }
          cleanup
  tail call void @_ZN6icu_777UObjectD2Ev(ptr noundef nonnull align 8 dereferenceable(8) %0) #8
  resume { ptr, i32 } %12
}